; Function Attrs: mustprogress nounwind uwtable
define hidden void @_ZN10JavaThread19release_oop_handlesEv() local_unnamed_addr #0 align 2 {
  %1 = load ptr, ptr @Service_lock, align 8
  %.not.i.i = icmp eq ptr %1, null
  br i1 %.not.i.i, label %_ZN11MutexLockerC2EP5MutexNS0_18SafepointCheckFlagE.exit.thread, label %3

_ZN11MutexLockerC2EP5MutexNS0_18SafepointCheckFlagE.exit.thread: ; preds = %0
  %2 = load ptr, ptr @_ZN10JavaThread16_oop_handle_listE, align 8
  store ptr null, ptr @_ZN10JavaThread16_oop_handle_listE, align 8
  br label %_ZN11MutexLockerD2Ev.exit

3:                                                ; preds = %0
  tail call void @_ZN5Mutex28lock_without_safepoint_checkEv(ptr noundef nonnull align 8 dereferenceable(104) %1) #21
  %4 = load ptr, ptr @_ZN10JavaThread16_oop_handle_listE, align 8
  store ptr null, ptr @_ZN10JavaThread16_oop_handle_listE, align 8
  tail call void @_ZN5Mutex6unlockEv(ptr noundef nonnull align 8 dereferenceable(104) %1) #21
  br label %_ZN11MutexLockerD2Ev.exit

_ZN11MutexLockerD2Ev.exit:                        ; preds = %_ZN11MutexLockerC2EP5MutexNS0_18SafepointCheckFlagE.exit.thread, %3
  %5 = phi ptr [ %2, %_ZN11MutexLockerC2EP5MutexNS0_18SafepointCheckFlagE.exit.thread ], [ %4, %3 ]
  %.not6 = icmp eq ptr %5, null
  br i1 %.not6, label %._crit_edge, label %.lr.ph

.lr.ph:                                           ; preds = %_ZN11MutexLockerD2Ev.exit, %_ZN13OopHandleListD2Ev.exit
  %.07 = phi ptr [ %7, %_ZN13OopHandleListD2Ev.exit ], [ %5, %_ZN11MutexLockerD2Ev.exit ]
  %6 = getelementptr inbounds i8, ptr %.07, i64 32
  %7 = load ptr, ptr %6, align 8
  %8 = getelementptr inbounds i8, ptr %.07, i64 40
  %9 = load i32, ptr %8, align 8
  %10 = icmp sgt i32 %9, 0
  br i1 %10, label %.lr.ph.i, label %_ZN13OopHandleListD2Ev.exit

.lr.ph.i:                                         ; preds = %.lr.ph, %_ZN9OopHandle7releaseEP10OopStorage.exit.i
  %11 = phi i32 [ %18, %_ZN9OopHandle7releaseEP10OopStorage.exit.i ], [ %9, %.lr.ph ]
  %indvars.iv.i = phi i64 [ %indvars.iv.next.i, %_ZN9OopHandle7releaseEP10OopStorage.exit.i ], [ 0, %.lr.ph ]
  %12 = getelementptr inbounds [4 x %class.OopHandle], ptr %.07, i64 0, i64 %indvars.iv.i
  %13 = load ptr, ptr %12, align 8
  %.not.i.i5 = icmp eq ptr %13, null
  br i1 %.not.i.i5, label %_ZN9OopHandle7releaseEP10OopStorage.exit.i, label %14

14:                                               ; preds = %.lr.ph.i
  %15 = load ptr, ptr @_ZN10JavaThread19_thread_oop_storageE, align 8
  %16 = load ptr, ptr @_ZN14AccessInternal15RuntimeDispatchILm548932EP7oopDescLNS_11BarrierTypeE0EE11_store_funcE, align 8
  tail call void %16(ptr noundef nonnull %13, ptr noundef null) #21
  %17 = load ptr, ptr %12, align 8
  tail call void @_ZN10OopStorage7releaseEPKP7oopDesc(ptr noundef nonnull align 8 dereferenceable(126) %15, ptr noundef %17) #21
  store ptr null, ptr %12, align 8
  %.pre.i = load i32, ptr %8, align 8
  br label %_ZN9OopHandle7releaseEP10OopStorage.exit.i

_ZN9OopHandle7releaseEP10OopStorage.exit.i:       ; preds = %14, %.lr.ph.i
  %18 = phi i32 [ %11, %.lr.ph.i ], [ %.pre.i, %14 ]
  %indvars.iv.next.i = add nuw nsw i64 %indvars.iv.i, 1
  %19 = sext i32 %18 to i64
  %20 = icmp slt i64 %indvars.iv.next.i, %19
  br i1 %20, label %.lr.ph.i, label %_ZN13OopHandleListD2Ev.exit, !llvm.loop !93

_ZN13OopHandleListD2Ev.exit:                      ; preds = %_ZN9OopHandle7releaseEP10OopStorage.exit.i, %.lr.ph
  tail call void @_Z8FreeHeapPv(ptr noundef nonnull %.07) #21
  %.not = icmp eq ptr %7, null
  br i1 %.not, label %._crit_edge, label %.lr.ph, !llvm.loop !94

._crit_edge:                                      ; preds = %_ZN13OopHandleListD2Ev.exit, %_ZN11MutexLockerD2Ev.exit
  ret void
}